; Function Attrs: mustprogress uwtable
define dso_local noundef zeroext i1 @_ZNK5cmELF6IsMIPSEv(ptr nocapture noundef nonnull readonly align 8 dereferenceable(40) %0) local_unnamed_addr #0 align 2 {
  %2 = load ptr, ptr %0, align 8
  %.not.i = icmp eq ptr %2, null
  br i1 %.not.i, label %_ZNK5cmELF5ValidEv.exit.thread, label %_ZNK5cmELF5ValidEv.exit

_ZNK5cmELF5ValidEv.exit:                          ; preds = %1
  %3 = getelementptr inbounds i8, ptr %2, i64 28
  %4 = load i32, ptr %3, align 4
  %.not = icmp eq i32 %4, 0
  br i1 %.not, label %_ZNK5cmELF5ValidEv.exit.thread, label %5

5:                                                ; preds = %_ZNK5cmELF5ValidEv.exit
  %6 = load ptr, ptr %2, align 8
  %7 = getelementptr inbounds i8, ptr %6, i64 56
  %8 = load ptr, ptr %7, align 8
  %9 = tail call noundef zeroext i1 %8(ptr noundef nonnull align 8 dereferenceable(88) %2)
  br label %_ZNK5cmELF5ValidEv.exit.thread

_ZNK5cmELF5ValidEv.exit.thread:                   ; preds = %1, %_ZNK5cmELF5ValidEv.exit, %5
  %.0 = phi i1 [ %9, %5 ], [ false, %_ZNK5cmELF5ValidEv.exit ], [ false, %1 ]
  ret i1 %.0
}